; Function Attrs: mustprogress nofree norecurse nosync nounwind willreturn memory(readwrite, inaccessiblemem: none) uwtable
define internal void @_ZNK5faiss8IndexNSG15check_knn_graphEPKlli.omp_outlined.omp.reduction.reduction_func(ptr nocapture noundef readonly %0, ptr nocapture noundef readonly %1) #15 {
  %3 = load ptr, ptr %1, align 8
  %4 = load ptr, ptr %0, align 8
  %5 = load i64, ptr %4, align 8
  %6 = load i64, ptr %3, align 8
  %7 = add nsw i64 %6, %5
  store i64 %7, ptr %4, align 8
  ret void
}